target datalayout = "e-m:e-p270:32:32-p271:32:32-p272:64:64-i64:64-i128:128-f80:128-n8:16:32:64-S128"
target triple = "x86_64-pc-linux-gnu"

%struct.h5tools_str_t = type { ptr, i64, i64 }
%struct.h5tool_format_t = type { i8, ptr, ptr, ptr, ptr, ptr, ptr, ptr, ptr, ptr, ptr, ptr, ptr, ptr, ptr, ptr, ptr, ptr, i32, i32, i32, ptr, ptr, ptr, i32, ptr, ptr, ptr, ptr, ptr, ptr, ptr, ptr, ptr, ptr, ptr, ptr, ptr, ptr, ptr, ptr, i32, i64, ptr, ptr, ptr, ptr, ptr, i32, ptr, i32, i32, ptr, i32, ptr, ptr, ptr, ptr, i32, i32 }
%struct.h5tools_context_t = type { i64, i64, i32, i32, [32 x i64], [32 x i64], i32, i64, i32, i64, i32, i32, [32 x i64], [32 x i64], i64, ptr, ptr, i32, i32 }

@.str.14 = private unnamed_addr constant [2 x i8] c"{\00", align 1
@.str.15 = private unnamed_addr constant [2 x i8] c"}\00", align 1
@.str.207 = private unnamed_addr constant [13 x i8] c"%s %s %ld %s\00", align 1
@.str.208 = private unnamed_addr constant [9 x i8] c"OBJECTID\00", align 1

; Function Attrs: nounwind uwtable
define void @h5tools_dump_oid(ptr noundef %0, ptr noundef %1, ptr noundef %2, i64 noundef %3) #0 {
  %5 = alloca ptr, align 8
  %6 = alloca ptr, align 8
  %7 = alloca ptr, align 8
  %8 = alloca i64, align 8
  %9 = alloca %struct.h5tools_str_t, align 8
  %10 = alloca i64, align 8
  %11 = alloca i64, align 8
  store ptr %0, ptr %5, align 8, !tbaa !8
  store ptr %1, ptr %6, align 8, !tbaa !10
  store ptr %2, ptr %7, align 8, !tbaa !12
  store i64 %3, ptr %8, align 8, !tbaa !14
  call void @llvm.lifetime.start.p0(i64 24, ptr %9) #10
  call void @llvm.lifetime.start.p0(i64 8, ptr %10) #10
  store i64 80, ptr %10, align 8, !tbaa !14
  call void @llvm.lifetime.start.p0(i64 8, ptr %11) #10
  %12 = load ptr, ptr %7, align 8, !tbaa !12
  %13 = getelementptr inbounds nuw %struct.h5tools_context_t, ptr %12, i32 0, i32 14
  %14 = load i64, ptr %13, align 8, !tbaa !26
  store i64 %14, ptr %11, align 8, !tbaa !14
  call void @llvm.memset.p0.i64(ptr align 8 %9, i8 0, i64 24, i1 false)
  %15 = load ptr, ptr %6, align 8, !tbaa !10
  %16 = getelementptr inbounds nuw %struct.h5tool_format_t, ptr %15, i32 0, i32 41
  %17 = load i32, ptr %16, align 8, !tbaa !23
  %18 = icmp ugt i32 %17, 0
  br i1 %18, label %19, label %24

19:                                               ; preds = %4
  %20 = load ptr, ptr %6, align 8, !tbaa !10
  %21 = getelementptr inbounds nuw %struct.h5tool_format_t, ptr %20, i32 0, i32 41
  %22 = load i32, ptr %21, align 8, !tbaa !23
  %23 = zext i32 %22 to i64
  store i64 %23, ptr %10, align 8, !tbaa !14
  br label %24

24:                                               ; preds = %19, %4
  %25 = load ptr, ptr %7, align 8, !tbaa !12
  %26 = getelementptr inbounds nuw %struct.h5tools_context_t, ptr %25, i32 0, i32 2
  store i32 1, ptr %26, align 8, !tbaa !46
  %27 = call ptr @h5tools_str_reset(ptr noundef %9)
  %28 = load i64, ptr %8, align 8, !tbaa !14
  %29 = call ptr (ptr, ptr, ...) @h5tools_str_append(ptr noundef %9, ptr noundef @.str.207, ptr noundef @.str.208, ptr noundef @.str.14, i64 noundef %28, ptr noundef @.str.15)
  %30 = load ptr, ptr %5, align 8, !tbaa !8
  %31 = load ptr, ptr %6, align 8, !tbaa !10
  %32 = load ptr, ptr %7, align 8, !tbaa !12
  %33 = load i64, ptr %10, align 8, !tbaa !14
  %34 = call zeroext i1 @h5tools_render_element(ptr noundef %30, ptr noundef %31, ptr noundef %32, ptr noundef %9, ptr noundef %11, i64 noundef %33, i64 noundef 0, i64 noundef 0)
  call void @h5tools_str_close(ptr noundef %9)
  call void @llvm.lifetime.end.p0(i64 8, ptr %11) #10
  call void @llvm.lifetime.end.p0(i64 8, ptr %10) #10
  call void @llvm.lifetime.end.p0(i64 24, ptr %9) #10
  ret void
}