; Function Attrs: nounwind uwtable
define void @h5tools_dump_oid(ptr noundef %0, ptr noundef %1, ptr noundef initializes((16, 20)) %2, i64 noundef %3) local_unnamed_addr #1 {
  %5 = alloca %struct.h5tools_str_t, align 8
  %6 = alloca i64, align 8
  call void @llvm.lifetime.start.p0(i64 24, ptr nonnull %5) #12
  call void @llvm.lifetime.start.p0(i64 8, ptr nonnull %6) #12
  %7 = getelementptr inbounds nuw i8, ptr %2, i64 1088
  %8 = load i64, ptr %7, align 8, !tbaa !16
  store i64 %8, ptr %6, align 8, !tbaa !19
  call void @llvm.memset.p0.i64(ptr noundef nonnull align 8 dereferenceable(24) %5, i8 0, i64 24, i1 false)
  %9 = getelementptr inbounds nuw i8, ptr %1, i64 320
  %10 = load i32, ptr %9, align 8, !tbaa !10
  %.not = icmp eq i32 %10, 0
  %narrow = select i1 %.not, i32 80, i32 %10
  %spec.select = zext i32 %narrow to i64
  %11 = getelementptr inbounds nuw i8, ptr %2, i64 16
  store i32 1, ptr %11, align 8, !tbaa !35
  %12 = call ptr @h5tools_str_reset(ptr noundef nonnull %5) #12
  %13 = call ptr (ptr, ptr, ...) @h5tools_str_append(ptr noundef nonnull %5, ptr noundef nonnull @.str.207, ptr noundef nonnull @.str.208, ptr noundef nonnull @.str.14, i64 noundef %3, ptr noundef nonnull @.str.15) #12
  %14 = call zeroext i1 @h5tools_render_element(ptr noundef %0, ptr noundef %1, ptr noundef %2, ptr noundef nonnull %5, ptr noundef nonnull %6, i64 noundef %spec.select, i64 noundef 0, i64 noundef 0) #12
  call void @h5tools_str_close(ptr noundef nonnull %5) #12
  call void @llvm.lifetime.end.p0(i64 8, ptr nonnull %6) #12
  call void @llvm.lifetime.end.p0(i64 24, ptr nonnull %5) #12
  ret void
}